; Function Attrs: mustprogress nofree norecurse nounwind willreturn memory(readwrite, inaccessiblemem: none) uwtable
define noundef i32 @_ZN7rocksdb19ThreadStatusUpdater18GetThreadOperationEv(ptr noundef nonnull readnone align 8 captures(none) dereferenceable(216) %0) local_unnamed_addr #8 align 2 {
  %2 = tail call align 8 ptr @llvm.threadlocal.address.p0(ptr align 8 @_ZN7rocksdb19ThreadStatusUpdater19thread_status_data_E)
  %3 = load ptr, ptr %2, align 8, !tbaa !14
  %4 = icmp eq ptr %3, null
  br i1 %4, label %_ZN7rocksdb19ThreadStatusUpdater20GetLocalThreadStatusEv.exit.thread, label %5

5:                                                ; preds = %1
  %6 = load atomic i8, ptr %3 monotonic, align 1
  %7 = trunc i8 %6 to i1
  br i1 %7, label %_ZN7rocksdb19ThreadStatusUpdater20GetLocalThreadStatusEv.exit, label %_ZN7rocksdb19ThreadStatusUpdater20GetLocalThreadStatusEv.exit.thread

_ZN7rocksdb19ThreadStatusUpdater20GetLocalThreadStatusEv.exit: ; preds = %5
  %8 = getelementptr inbounds nuw i8, ptr %3, i64 32
  %9 = load atomic i32, ptr %8 monotonic, align 4
  br label %_ZN7rocksdb19ThreadStatusUpdater20GetLocalThreadStatusEv.exit.thread

_ZN7rocksdb19ThreadStatusUpdater20GetLocalThreadStatusEv.exit.thread: ; preds = %5, %1, %_ZN7rocksdb19ThreadStatusUpdater20GetLocalThreadStatusEv.exit
  %.0 = phi i32 [ %9, %_ZN7rocksdb19ThreadStatusUpdater20GetLocalThreadStatusEv.exit ], [ 0, %1 ], [ 0, %5 ]
  ret i32 %.0
}